target datalayout = "e-m:e-p270:32:32-p271:32:32-p272:64:64-i64:64-i128:128-f80:128-n8:16:32:64-S128"
target triple = "x86_64-pc-linux-gnu"

%"class.Ipopt::SmartPtr.3" = type { ptr }
%"class.Ipopt::ReferencedObject" = type <{ ptr, i32, [4 x i8] }>

; Function Attrs: inlinehint mustprogress nounwind uwtable
define linkonce_odr noundef i32 @_ZNK5Ipopt16ReferencedObject14ReferenceCountEv(ptr noundef nonnull align 8 dereferenceable(12) %0) #6 comdat align 2 {
  %2 = alloca ptr, align 8
  store ptr %0, ptr %2, align 8, !tbaa !224
  %3 = load ptr, ptr %2, align 8
  %4 = getelementptr inbounds nuw %"class.Ipopt::ReferencedObject", ptr %3, i32 0, i32 1
  %5 = load i32, ptr %4, align 8, !tbaa !228
  ret i32 %5
}

; Function Attrs: inlinehint mustprogress nounwind uwtable
define linkonce_odr void @_ZNK5Ipopt16ReferencedObject10ReleaseRefEPKNS_10ReferencerE(ptr noundef nonnull align 8 dereferenceable(12) %0, ptr noundef %1) #6 comdat align 2 {
  %3 = alloca ptr, align 8
  %4 = alloca ptr, align 8
  store ptr %0, ptr %3, align 8, !tbaa !224
  store ptr %1, ptr %4, align 8, !tbaa !226
  %5 = load ptr, ptr %3, align 8
  %6 = getelementptr inbounds nuw %"class.Ipopt::ReferencedObject", ptr %5, i32 0, i32 1
  %7 = load i32, ptr %6, align 8, !tbaa !228
  %8 = add nsw i32 %7, -1
  store i32 %8, ptr %6, align 8, !tbaa !228
  ret void
}

; Function Attrs: mustprogress nounwind uwtable
define linkonce_odr void @_ZN5Ipopt8SmartPtrIKNS_9SymMatrixEE15ReleasePointer_Ev(ptr noundef nonnull align 8 dereferenceable(8) %0) #4 comdat align 2 {
  %2 = alloca ptr, align 8
  store ptr %0, ptr %2, align 8, !tbaa !65
  %3 = load ptr, ptr %2, align 8
  %4 = getelementptr inbounds nuw %"class.Ipopt::SmartPtr.3", ptr %3, i32 0, i32 0
  %5 = load ptr, ptr %4, align 8, !tbaa !67
  %6 = icmp ne ptr %5, null
  br i1 %6, label %7, label %25

7:                                                ; preds = %1
  %8 = getelementptr inbounds nuw %"class.Ipopt::SmartPtr.3", ptr %3, i32 0, i32 0
  %9 = load ptr, ptr %8, align 8, !tbaa !67
  call void @_ZNK5Ipopt16ReferencedObject10ReleaseRefEPKNS_10ReferencerE(ptr noundef nonnull align 8 dereferenceable(12) %9, ptr noundef %3)
  %10 = getelementptr inbounds nuw %"class.Ipopt::SmartPtr.3", ptr %3, i32 0, i32 0
  %11 = load ptr, ptr %10, align 8, !tbaa !67
  %12 = call noundef i32 @_ZNK5Ipopt16ReferencedObject14ReferenceCountEv(ptr noundef nonnull align 8 dereferenceable(12) %11)
  %13 = icmp eq i32 %12, 0
  br i1 %13, label %14, label %24

14:                                               ; preds = %7
  %15 = getelementptr inbounds nuw %"class.Ipopt::SmartPtr.3", ptr %3, i32 0, i32 0
  %16 = load ptr, ptr %15, align 8, !tbaa !67
  %17 = icmp eq ptr %16, null
  br i1 %17, label %22, label %18

18:                                               ; preds = %14
  %19 = load ptr, ptr %16, align 8, !tbaa !88
  %20 = getelementptr inbounds ptr, ptr %19, i64 1
  %21 = load ptr, ptr %20, align 8
  call void %21(ptr noundef nonnull align 8 dereferenceable(80) %16) #15
  br label %22

22:                                               ; preds = %18, %14
  %23 = getelementptr inbounds nuw %"class.Ipopt::SmartPtr.3", ptr %3, i32 0, i32 0
  store ptr null, ptr %23, align 8, !tbaa !67
  br label %24

24:                                               ; preds = %22, %7
  br label %25

25:                                               ; preds = %24, %1
  ret void
}

; Function Attrs: mustprogress nounwind uwtable
define linkonce_odr void @_ZN5Ipopt8SmartPtrIKNS_9SymMatrixEED2Ev(ptr noundef nonnull align 8 dereferenceable(8) %0) unnamed_addr #4 comdat align 2 {
  %2 = alloca ptr, align 8
  store ptr %0, ptr %2, align 8, !tbaa !65
  %3 = load ptr, ptr %2, align 8
  call void @_ZN5Ipopt8SmartPtrIKNS_9SymMatrixEE15ReleasePointer_Ev(ptr noundef nonnull align 8 dereferenceable(8) %3)
  ret void
}

; Function Attrs: mustprogress nounwind uwtable
define linkonce_odr noundef nonnull align 8 dereferenceable(80) ptr @_ZNK5Ipopt8SmartPtrIKNS_9SymMatrixEEdeEv(ptr noundef nonnull align 8 dereferenceable(8) %0) #4 comdat align 2 {
  %2 = alloca ptr, align 8
  store ptr %0, ptr %2, align 8, !tbaa !65
  %3 = load ptr, ptr %2, align 8
  %4 = getelementptr inbounds nuw %"class.Ipopt::SmartPtr.3", ptr %3, i32 0, i32 0
  %5 = load ptr, ptr %4, align 8, !tbaa !67
  ret ptr %5
}

; Function Attrs: mustprogress nounwind uwtable
define linkonce_odr void @_ZN5Ipopt8SmartPtrIKNS_9SymMatrixEEC2Ev(ptr noundef nonnull align 8 dereferenceable(8) %0) unnamed_addr #4 comdat align 2 {
  %2 = alloca ptr, align 8
  store ptr %0, ptr %2, align 8, !tbaa !65
  %3 = load ptr, ptr %2, align 8
  %4 = getelementptr inbounds nuw %"class.Ipopt::SmartPtr.3", ptr %3, i32 0, i32 0
  store ptr null, ptr %4, align 8, !tbaa !67
  ret void
}

; Function Attrs: mustprogress uwtable
define void @_ZN5Ipopt13TripletHelper11FillValues_EiRKNS_12SumSymMatrixEPd(i32 noundef %0, ptr noundef nonnull align 8 dereferenceable(136) %1, ptr noundef %2) #0 align 2 personality ptr @__gxx_personality_v0 {
  %4 = alloca i32, align 4
  %5 = alloca ptr, align 8
  %6 = alloca ptr, align 8
  %7 = alloca i32, align 4
  %8 = alloca double, align 8
  %9 = alloca %"class.Ipopt::SmartPtr.3", align 8
  %10 = alloca ptr, align 8
  %11 = alloca i32, align 4
  %12 = alloca i32, align 4
  %13 = alloca double, align 8
  store i32 %0, ptr %4, align 4, !tbaa !72
  store ptr %1, ptr %5, align 8, !tbaa !24
  store ptr %2, ptr %6, align 8, !tbaa !115
  call void @llvm.lifetime.start.p0(i64 4, ptr %7) #15
  store i32 0, ptr %7, align 4, !tbaa !72
  br label %14

14:                                               ; preds = %65, %3
  %15 = load i32, ptr %7, align 4, !tbaa !72
  %16 = load ptr, ptr %5, align 8, !tbaa !24
  %17 = call noundef i32 @_ZNK5Ipopt12SumSymMatrix6NTermsEv(ptr noundef nonnull align 8 dereferenceable(136) %16)
  %18 = icmp slt i32 %15, %17
  br i1 %18, label %20, label %19

19:                                               ; preds = %14
  call void @llvm.lifetime.end.p0(i64 4, ptr %7) #15
  br label %70

20:                                               ; preds = %14
  call void @llvm.lifetime.start.p0(i64 8, ptr %8) #15
  store double 0.000000e+00, ptr %8, align 8, !tbaa !99
  call void @llvm.lifetime.start.p0(i64 8, ptr %9) #15
  call void @_ZN5Ipopt8SmartPtrIKNS_9SymMatrixEEC2Ev(ptr noundef nonnull align 8 dereferenceable(8) %9)
  %21 = load ptr, ptr %5, align 8, !tbaa !24
  %22 = load i32, ptr %7, align 4, !tbaa !72
  invoke void @_ZNK5Ipopt12SumSymMatrix7GetTermEiRdRNS_8SmartPtrIKNS_9SymMatrixEEE(ptr noundef nonnull align 8 dereferenceable(136) %21, i32 noundef %22, ptr noundef nonnull align 8 dereferenceable(8) %8, ptr noundef nonnull align 8 dereferenceable(8) %9)
          to label %23 unwind label %43

23:                                               ; preds = %20
  call void @llvm.lifetime.start.p0(i64 4, ptr %12) #15
  %24 = invoke noundef nonnull align 8 dereferenceable(80) ptr @_ZNK5Ipopt8SmartPtrIKNS_9SymMatrixEEdeEv(ptr noundef nonnull align 8 dereferenceable(8) %9)
          to label %25 unwind label %47

25:                                               ; preds = %23
  %26 = invoke noundef i32 @_ZN5Ipopt13TripletHelper16GetNumberEntriesERKNS_6MatrixE(ptr noundef nonnull align 8 dereferenceable(69) %24)
          to label %27 unwind label %47

27:                                               ; preds = %25
  store i32 %26, ptr %12, align 4, !tbaa !72
  %28 = load double, ptr %8, align 8, !tbaa !99
  %29 = fcmp une double %28, 0.000000e+00
  br i1 %29, label %30, label %52

30:                                               ; preds = %27
  %31 = load i32, ptr %12, align 4, !tbaa !72
  %32 = invoke noundef nonnull align 8 dereferenceable(80) ptr @_ZNK5Ipopt8SmartPtrIKNS_9SymMatrixEEdeEv(ptr noundef nonnull align 8 dereferenceable(8) %9)
          to label %33 unwind label %47

33:                                               ; preds = %30
  %34 = load ptr, ptr %6, align 8, !tbaa !115
  invoke void @_ZN5Ipopt13TripletHelper10FillValuesEiRKNS_6MatrixEPd(i32 noundef %31, ptr noundef nonnull align 8 dereferenceable(69) %32, ptr noundef %34)
          to label %35 unwind label %47

35:                                               ; preds = %33
  %36 = load double, ptr %8, align 8, !tbaa !99
  %37 = fcmp une double %36, 1.000000e+00
  br i1 %37, label %38, label %51

38:                                               ; preds = %35
  %39 = load i32, ptr %12, align 4, !tbaa !72
  %40 = load double, ptr %8, align 8, !tbaa !99
  %41 = load ptr, ptr %6, align 8, !tbaa !115
  invoke void @_ZN5Ipopt10IpBlasScalEidPdi(i32 noundef %39, double noundef %40, ptr noundef %41, i32 noundef 1)
          to label %42 unwind label %47

42:                                               ; preds = %38
  br label %51

43:                                               ; preds = %20
  %44 = landingpad { ptr, i32 }
          cleanup
  %45 = extractvalue { ptr, i32 } %44, 0
  store ptr %45, ptr %10, align 8
  %46 = extractvalue { ptr, i32 } %44, 1
  store i32 %46, ptr %11, align 4
  br label %69

47:                                               ; preds = %38, %33, %30, %25, %23
  %48 = landingpad { ptr, i32 }
          cleanup
  %49 = extractvalue { ptr, i32 } %48, 0
  store ptr %49, ptr %10, align 8
  %50 = extractvalue { ptr, i32 } %48, 1
  store i32 %50, ptr %11, align 4
  br label %68

51:                                               ; preds = %42, %35
  br label %60

52:                                               ; preds = %27
  call void @llvm.lifetime.start.p0(i64 8, ptr %13) #15
  store double 0.000000e+00, ptr %13, align 8, !tbaa !99
  %53 = load i32, ptr %12, align 4, !tbaa !72
  %54 = load ptr, ptr %6, align 8, !tbaa !115
  invoke void @_ZN5Ipopt10IpBlasCopyEiPKdiPdi(i32 noundef %53, ptr noundef %13, i32 noundef 0, ptr noundef %54, i32 noundef 1)
          to label %55 unwind label %56

55:                                               ; preds = %52
  call void @llvm.lifetime.end.p0(i64 8, ptr %13) #15
  br label %60

56:                                               ; preds = %52
  %57 = landingpad { ptr, i32 }
          cleanup
  %58 = extractvalue { ptr, i32 } %57, 0
  store ptr %58, ptr %10, align 8
  %59 = extractvalue { ptr, i32 } %57, 1
  store i32 %59, ptr %11, align 4
  call void @llvm.lifetime.end.p0(i64 8, ptr %13) #15
  br label %68

60:                                               ; preds = %55, %51
  %61 = load i32, ptr %12, align 4, !tbaa !72
  %62 = load ptr, ptr %6, align 8, !tbaa !115
  %63 = sext i32 %61 to i64
  %64 = getelementptr inbounds double, ptr %62, i64 %63
  store ptr %64, ptr %6, align 8, !tbaa !115
  call void @llvm.lifetime.end.p0(i64 4, ptr %12) #15
  call void @_ZN5Ipopt8SmartPtrIKNS_9SymMatrixEED2Ev(ptr noundef nonnull align 8 dereferenceable(8) %9) #15
  call void @llvm.lifetime.end.p0(i64 8, ptr %9) #15
  call void @llvm.lifetime.end.p0(i64 8, ptr %8) #15
  br label %65

65:                                               ; preds = %60
  %66 = load i32, ptr %7, align 4, !tbaa !72
  %67 = add nsw i32 %66, 1
  store i32 %67, ptr %7, align 4, !tbaa !72
  br label %14, !llvm.loop !123

68:                                               ; preds = %56, %47
  call void @llvm.lifetime.end.p0(i64 4, ptr %12) #15
  br label %69

69:                                               ; preds = %68, %43
  call void @_ZN5Ipopt8SmartPtrIKNS_9SymMatrixEED2Ev(ptr noundef nonnull align 8 dereferenceable(8) %9) #15
  call void @llvm.lifetime.end.p0(i64 8, ptr %9) #15
  call void @llvm.lifetime.end.p0(i64 8, ptr %8) #15
  call void @llvm.lifetime.end.p0(i64 4, ptr %7) #15
  br label %71

70:                                               ; preds = %19
  ret void

71:                                               ; preds = %69
  %72 = load ptr, ptr %10, align 8
  %73 = load i32, ptr %11, align 4
  %74 = insertvalue { ptr, i32 } poison, ptr %72, 0
  %75 = insertvalue { ptr, i32 } %74, i32 %73, 1
  resume { ptr, i32 } %75
}