; Function Attrs: mustprogress uwtable
define void @_ZN5Ipopt13TripletHelper11FillValues_EiRKNS_12SumSymMatrixEPd(i32 %0, ptr noundef nonnull align 8 dereferenceable(136) %1, ptr noundef %2) local_unnamed_addr #0 align 2 personality ptr @__gxx_personality_v0 {
  %4 = alloca double, align 8
  %5 = alloca %"class.Ipopt::SmartPtr.3", align 8
  %6 = alloca double, align 8
  %7 = tail call noundef i32 @_ZNK5Ipopt12SumSymMatrix6NTermsEv(ptr noundef nonnull align 8 dereferenceable(136) %1)
  %8 = icmp sgt i32 %7, 0
  br i1 %8, label %.lr.ph, label %._crit_edge

._crit_edge:                                      ; preds = %_ZN5Ipopt8SmartPtrIKNS_9SymMatrixEED2Ev.exit, %3
  ret void

.lr.ph:                                           ; preds = %3, %_ZN5Ipopt8SmartPtrIKNS_9SymMatrixEED2Ev.exit
  %.024 = phi ptr [ %31, %_ZN5Ipopt8SmartPtrIKNS_9SymMatrixEED2Ev.exit ], [ %2, %3 ]
  %.01723 = phi i32 [ %42, %_ZN5Ipopt8SmartPtrIKNS_9SymMatrixEED2Ev.exit ], [ 0, %3 ]
  call void @llvm.lifetime.start.p0(i64 8, ptr nonnull %4) #17
  store double 0.000000e+00, ptr %4, align 8, !tbaa !168
  call void @llvm.lifetime.start.p0(i64 8, ptr nonnull %5) #17
  store ptr null, ptr %5, align 8, !tbaa !45
  invoke void @_ZNK5Ipopt12SumSymMatrix7GetTermEiRdRNS_8SmartPtrIKNS_9SymMatrixEEE(ptr noundef nonnull align 8 dereferenceable(136) %1, i32 noundef %.01723, ptr noundef nonnull align 8 dereferenceable(8) %4, ptr noundef nonnull align 8 dereferenceable(8) %5)
          to label %9 unwind label %21

9:                                                ; preds = %.lr.ph
  %10 = load ptr, ptr %5, align 8, !tbaa !45
  %11 = invoke noundef i32 @_ZN5Ipopt13TripletHelper16GetNumberEntriesERKNS_6MatrixE(ptr noundef nonnull align 8 dereferenceable(69) %10)
          to label %12 unwind label %23

12:                                               ; preds = %9
  %13 = load double, ptr %4, align 8, !tbaa !168
  %14 = fcmp une double %13, 0.000000e+00
  br i1 %14, label %15, label %25

15:                                               ; preds = %12
  %16 = load ptr, ptr %5, align 8, !tbaa !45
  invoke void @_ZN5Ipopt13TripletHelper10FillValuesEiRKNS_6MatrixEPd(i32 noundef %11, ptr noundef nonnull align 8 dereferenceable(69) %16, ptr noundef %.024)
          to label %17 unwind label %23

17:                                               ; preds = %15
  %18 = load double, ptr %4, align 8, !tbaa !168
  %19 = fcmp une double %18, 1.000000e+00
  br i1 %19, label %20, label %29

20:                                               ; preds = %17
  invoke void @_ZN5Ipopt10IpBlasScalEidPdi(i32 noundef %11, double noundef %18, ptr noundef %.024, i32 noundef 1)
          to label %29 unwind label %23

21:                                               ; preds = %.lr.ph
  %22 = landingpad { ptr, i32 }
          cleanup
  br label %45

23:                                               ; preds = %20, %15, %9
  %24 = landingpad { ptr, i32 }
          cleanup
  br label %45

25:                                               ; preds = %12
  call void @llvm.lifetime.start.p0(i64 8, ptr nonnull %6) #17
  store double 0.000000e+00, ptr %6, align 8, !tbaa !168
  invoke void @_ZN5Ipopt10IpBlasCopyEiPKdiPdi(i32 noundef %11, ptr noundef nonnull %6, i32 noundef 0, ptr noundef %.024, i32 noundef 1)
          to label %26 unwind label %27

26:                                               ; preds = %25
  call void @llvm.lifetime.end.p0(i64 8, ptr nonnull %6) #17
  br label %29

27:                                               ; preds = %25
  %28 = landingpad { ptr, i32 }
          cleanup
  call void @llvm.lifetime.end.p0(i64 8, ptr nonnull %6) #17
  br label %45

29:                                               ; preds = %17, %20, %26
  %30 = sext i32 %11 to i64
  %31 = getelementptr inbounds double, ptr %.024, i64 %30
  %32 = load ptr, ptr %5, align 8, !tbaa !45
  %.not.i.i = icmp eq ptr %32, null
  br i1 %.not.i.i, label %_ZN5Ipopt8SmartPtrIKNS_9SymMatrixEED2Ev.exit, label %33

33:                                               ; preds = %29
  %34 = getelementptr inbounds nuw i8, ptr %32, i64 8
  %35 = load i32, ptr %34, align 8, !tbaa !42
  %36 = add nsw i32 %35, -1
  store i32 %36, ptr %34, align 8, !tbaa !42
  %37 = icmp eq i32 %36, 0
  br i1 %37, label %38, label %_ZN5Ipopt8SmartPtrIKNS_9SymMatrixEED2Ev.exit

38:                                               ; preds = %33
  %39 = load ptr, ptr %32, align 8, !tbaa !43
  %40 = getelementptr inbounds nuw i8, ptr %39, i64 8
  %41 = load ptr, ptr %40, align 8
  call void %41(ptr noundef nonnull align 8 dereferenceable(80) %32) #17
  br label %_ZN5Ipopt8SmartPtrIKNS_9SymMatrixEED2Ev.exit

_ZN5Ipopt8SmartPtrIKNS_9SymMatrixEED2Ev.exit:     ; preds = %29, %33, %38
  call void @llvm.lifetime.end.p0(i64 8, ptr nonnull %5) #17
  call void @llvm.lifetime.end.p0(i64 8, ptr nonnull %4) #17
  %42 = add nuw nsw i32 %.01723, 1
  %43 = call noundef i32 @_ZNK5Ipopt12SumSymMatrix6NTermsEv(ptr noundef nonnull align 8 dereferenceable(136) %1)
  %44 = icmp slt i32 %42, %43
  br i1 %44, label %.lr.ph, label %._crit_edge, !llvm.loop !290

45:                                               ; preds = %23, %27, %21
  %.pn.pn = phi { ptr, i32 } [ %22, %21 ], [ %24, %23 ], [ %28, %27 ]
  %46 = load ptr, ptr %5, align 8, !tbaa !45
  %.not.i.i21 = icmp eq ptr %46, null
  br i1 %.not.i.i21, label %_ZN5Ipopt8SmartPtrIKNS_9SymMatrixEED2Ev.exit22, label %47

47:                                               ; preds = %45
  %48 = getelementptr inbounds nuw i8, ptr %46, i64 8
  %49 = load i32, ptr %48, align 8, !tbaa !42
  %50 = add nsw i32 %49, -1
  store i32 %50, ptr %48, align 8, !tbaa !42
  %51 = icmp eq i32 %50, 0
  br i1 %51, label %52, label %_ZN5Ipopt8SmartPtrIKNS_9SymMatrixEED2Ev.exit22

52:                                               ; preds = %47
  %53 = load ptr, ptr %46, align 8, !tbaa !43
  %54 = getelementptr inbounds nuw i8, ptr %53, i64 8
  %55 = load ptr, ptr %54, align 8
  call void %55(ptr noundef nonnull align 8 dereferenceable(80) %46) #17
  br label %_ZN5Ipopt8SmartPtrIKNS_9SymMatrixEED2Ev.exit22

_ZN5Ipopt8SmartPtrIKNS_9SymMatrixEED2Ev.exit22:   ; preds = %45, %47, %52
  call void @llvm.lifetime.end.p0(i64 8, ptr nonnull %5) #17
  call void @llvm.lifetime.end.p0(i64 8, ptr nonnull %4) #17
  resume { ptr, i32 } %.pn.pn
}